target datalayout = "e-m:e-p270:32:32-p271:32:32-p272:64:64-i64:64-i128:128-f80:128-n8:16:32:64-S128"
target triple = "x86_64-pc-linux-gnu"

%"class.std::shared_ptr" = type { %"class.std::__shared_ptr" }
%"class.std::__shared_ptr" = type { ptr, %"class.std::__shared_count" }
%"class.std::__shared_count" = type { ptr }
%"class.std::__cxx11::basic_string" = type { %"struct.std::__cxx11::basic_string<char>::_Alloc_hider", i64, %union.anon }
%"struct.std::__cxx11::basic_string<char>::_Alloc_hider" = type { ptr }
%union.anon = type { i64, [8 x i8] }
%"class.std::vector" = type { %"struct.std::_Vector_base" }
%"struct.std::_Vector_base" = type { %"struct.std::_Vector_base<std::__cxx11::basic_string<char>, std::allocator<std::__cxx11::basic_string<char>>>::_Vector_impl" }
%"struct.std::_Vector_base<std::__cxx11::basic_string<char>, std::allocator<std::__cxx11::basic_string<char>>>::_Vector_impl" = type { %"struct.std::_Vector_base<std::__cxx11::basic_string<char>, std::allocator<std::__cxx11::basic_string<char>>>::_Vector_impl_data" }
%"struct.std::_Vector_base<std::__cxx11::basic_string<char>, std::allocator<std::__cxx11::basic_string<char>>>::_Vector_impl_data" = type { ptr, ptr, ptr }
%"class.OpenColorIO_v2_5dev::ColorSpaceInfo" = type { ptr, %"class.std::__cxx11::basic_string", %"class.std::__cxx11::basic_string", %"class.std::__cxx11::basic_string", %"class.std::__cxx11::basic_string", %"class.std::vector" }
%"class.std::shared_ptr.3" = type { %"class.std::__shared_ptr.4" }
%"class.std::__shared_ptr.4" = type { ptr, %"class.std::__shared_count" }
%"class.OpenColorIO_v2_5dev::ColorSpaceMenuParametersImpl" = type { %"class.OpenColorIO_v2_5dev::ColorSpaceMenuParameters", %"class.std::shared_ptr.3", %"class.std::__cxx11::basic_string", %"class.std::__cxx11::basic_string", %"class.std::__cxx11::basic_string", %"class.std::__cxx11::basic_string", i8, i8, i8, i32, %"class.std::vector" }
%"class.OpenColorIO_v2_5dev::ColorSpaceMenuParameters" = type { ptr }
%"class.OpenColorIO_v2_5dev::ColorSpaceMenuHelperImpl" = type { %"class.OpenColorIO_v2_5dev::ColorSpaceMenuHelper", %"class.OpenColorIO_v2_5dev::ColorSpaceMenuParametersImpl", %"class.std::vector.22" }
%"class.OpenColorIO_v2_5dev::ColorSpaceMenuHelper" = type { ptr }
%"class.std::vector.22" = type { %"struct.std::_Vector_base.23" }
%"struct.std::_Vector_base.23" = type { %"struct.std::_Vector_base<std::shared_ptr<const OpenColorIO_v2_5dev::ColorSpaceInfo>, std::allocator<std::shared_ptr<const OpenColorIO_v2_5dev::ColorSpaceInfo>>>::_Vector_impl" }
%"struct.std::_Vector_base<std::shared_ptr<const OpenColorIO_v2_5dev::ColorSpaceInfo>, std::allocator<std::shared_ptr<const OpenColorIO_v2_5dev::ColorSpaceInfo>>>::_Vector_impl" = type { %"struct.std::_Vector_base<std::shared_ptr<const OpenColorIO_v2_5dev::ColorSpaceInfo>, std::allocator<std::shared_ptr<const OpenColorIO_v2_5dev::ColorSpaceInfo>>>::_Vector_impl_data" }
%"struct.std::_Vector_base<std::shared_ptr<const OpenColorIO_v2_5dev::ColorSpaceInfo>, std::allocator<std::shared_ptr<const OpenColorIO_v2_5dev::ColorSpaceInfo>>>::_Vector_impl_data" = type { ptr, ptr, ptr }

@.str.2 = private unnamed_addr constant [1 x i8] zeroinitializer, align 1

; Function Attrs: mustprogress nounwind uwtable
define available_externally noundef ptr @_ZNKSt7__cxx1112basic_stringIcSt11char_traitsIcESaIcEE7_M_dataEv(ptr noundef nonnull align 8 dereferenceable(32) %0) #4 align 2 {
  %2 = alloca ptr, align 8
  store ptr %0, ptr %2, align 8, !tbaa !29
  %3 = load ptr, ptr %2, align 8
  %4 = getelementptr inbounds nuw %"class.std::__cxx11::basic_string", ptr %3, i32 0, i32 0
  %5 = getelementptr inbounds nuw %"struct.std::__cxx11::basic_string<char>::_Alloc_hider", ptr %4, i32 0, i32 0
  %6 = load ptr, ptr %5, align 8, !tbaa !266
  ret ptr %6
}

; Function Attrs: mustprogress nounwind uwtable
define linkonce_odr hidden noundef ptr @_ZNKSt12__shared_ptrIKN19OpenColorIO_v2_5dev14ColorSpaceInfoELN9__gnu_cxx12_Lock_policyE2EE3getEv(ptr noundef nonnull align 8 dereferenceable(16) %0) #4 comdat align 2 {
  %2 = alloca ptr, align 8
  store ptr %0, ptr %2, align 8, !tbaa !201
  %3 = load ptr, ptr %2, align 8
  %4 = getelementptr inbounds nuw %"class.std::__shared_ptr", ptr %3, i32 0, i32 0
  %5 = load ptr, ptr %4, align 8, !tbaa !203
  ret ptr %5
}

; Function Attrs: mustprogress nounwind uwtable
define available_externally noundef ptr @_ZNKSt7__cxx1112basic_stringIcSt11char_traitsIcESaIcEE5c_strEv(ptr noundef nonnull align 8 dereferenceable(32) %0) #4 align 2 {
  %2 = alloca ptr, align 8
  store ptr %0, ptr %2, align 8, !tbaa !29
  %3 = load ptr, ptr %2, align 8
  %4 = call noundef ptr @_ZNKSt7__cxx1112basic_stringIcSt11char_traitsIcESaIcEE7_M_dataEv(ptr noundef nonnull align 8 dereferenceable(32) %3)
  ret ptr %4
}

; Function Attrs: mustprogress nounwind uwtable
define linkonce_odr hidden noundef ptr @_ZNKSt19__shared_ptr_accessIKN19OpenColorIO_v2_5dev14ColorSpaceInfoELN9__gnu_cxx12_Lock_policyE2ELb0ELb0EE6_M_getEv(ptr noundef nonnull align 1 dereferenceable(1) %0) #4 comdat align 2 {
  %2 = alloca ptr, align 8
  store ptr %0, ptr %2, align 8, !tbaa !157
  %3 = load ptr, ptr %2, align 8
  %4 = call noundef ptr @_ZNKSt12__shared_ptrIKN19OpenColorIO_v2_5dev14ColorSpaceInfoELN9__gnu_cxx12_Lock_policyE2EE3getEv(ptr noundef nonnull align 8 dereferenceable(16) %3) #12
  ret ptr %4
}

; Function Attrs: mustprogress nounwind uwtable
define hidden noundef ptr @_ZNK19OpenColorIO_v2_5dev14ColorSpaceInfo7getNameEv(ptr noundef nonnull align 8 dereferenceable(160) %0) #4 align 2 {
  %2 = alloca ptr, align 8
  store ptr %0, ptr %2, align 8, !tbaa !10
  %3 = load ptr, ptr %2, align 8
  %4 = getelementptr inbounds nuw %"class.OpenColorIO_v2_5dev::ColorSpaceInfo", ptr %3, i32 0, i32 1
  %5 = call noundef ptr @_ZNKSt7__cxx1112basic_stringIcSt11char_traitsIcESaIcEE5c_strEv(ptr noundef nonnull align 8 dereferenceable(32) %4) #12
  ret ptr %5
}

; Function Attrs: mustprogress nounwind uwtable
define linkonce_odr hidden noundef ptr @_ZNKSt19__shared_ptr_accessIKN19OpenColorIO_v2_5dev14ColorSpaceInfoELN9__gnu_cxx12_Lock_policyE2ELb0ELb0EEptEv(ptr noundef nonnull align 1 dereferenceable(1) %0) #4 comdat align 2 {
  %2 = alloca ptr, align 8
  store ptr %0, ptr %2, align 8, !tbaa !157
  %3 = load ptr, ptr %2, align 8
  %4 = call noundef ptr @_ZNKSt19__shared_ptr_accessIKN19OpenColorIO_v2_5dev14ColorSpaceInfoELN9__gnu_cxx12_Lock_policyE2ELb0ELb0EE6_M_getEv(ptr noundef nonnull align 1 dereferenceable(1) %3) #12
  ret ptr %4
}

; Function Attrs: mustprogress nounwind uwtable
define linkonce_odr hidden noundef nonnull align 8 dereferenceable(16) ptr @_ZNKSt6vectorISt10shared_ptrIKN19OpenColorIO_v2_5dev14ColorSpaceInfoEESaIS4_EEixEm(ptr noundef nonnull align 8 dereferenceable(24) %0, i64 noundef %1) #4 comdat align 2 {
  %3 = alloca ptr, align 8
  %4 = alloca i64, align 8
  store ptr %0, ptr %3, align 8, !tbaa !133
  store i64 %1, ptr %4, align 8, !tbaa !56
  %5 = load ptr, ptr %3, align 8
  %6 = getelementptr inbounds nuw %"struct.std::_Vector_base.23", ptr %5, i32 0, i32 0
  %7 = getelementptr inbounds nuw %"struct.std::_Vector_base<std::shared_ptr<const OpenColorIO_v2_5dev::ColorSpaceInfo>, std::allocator<std::shared_ptr<const OpenColorIO_v2_5dev::ColorSpaceInfo>>>::_Vector_impl_data", ptr %6, i32 0, i32 0
  %8 = load ptr, ptr %7, align 8, !tbaa !148
  %9 = load i64, ptr %4, align 8, !tbaa !56
  %10 = getelementptr inbounds nuw %"class.std::shared_ptr", ptr %8, i64 %9
  ret ptr %10
}

; Function Attrs: mustprogress nounwind uwtable
define linkonce_odr hidden noundef i64 @_ZNKSt6vectorISt10shared_ptrIKN19OpenColorIO_v2_5dev14ColorSpaceInfoEESaIS4_EE4sizeEv(ptr noundef nonnull align 8 dereferenceable(24) %0) #4 comdat align 2 {
  %2 = alloca ptr, align 8
  store ptr %0, ptr %2, align 8, !tbaa !133
  %3 = load ptr, ptr %2, align 8
  %4 = getelementptr inbounds nuw %"struct.std::_Vector_base.23", ptr %3, i32 0, i32 0
  %5 = getelementptr inbounds nuw %"struct.std::_Vector_base<std::shared_ptr<const OpenColorIO_v2_5dev::ColorSpaceInfo>, std::allocator<std::shared_ptr<const OpenColorIO_v2_5dev::ColorSpaceInfo>>>::_Vector_impl_data", ptr %4, i32 0, i32 1
  %6 = load ptr, ptr %5, align 8, !tbaa !149
  %7 = getelementptr inbounds nuw %"struct.std::_Vector_base.23", ptr %3, i32 0, i32 0
  %8 = getelementptr inbounds nuw %"struct.std::_Vector_base<std::shared_ptr<const OpenColorIO_v2_5dev::ColorSpaceInfo>, std::allocator<std::shared_ptr<const OpenColorIO_v2_5dev::ColorSpaceInfo>>>::_Vector_impl_data", ptr %7, i32 0, i32 0
  %9 = load ptr, ptr %8, align 8, !tbaa !148
  %10 = ptrtoint ptr %6 to i64
  %11 = ptrtoint ptr %9 to i64
  %12 = sub i64 %10, %11
  %13 = sdiv exact i64 %12, 16
  ret i64 %13
}

; Function Attrs: mustprogress nounwind uwtable
define hidden noundef ptr @_ZNK19OpenColorIO_v2_5dev24ColorSpaceMenuHelperImpl7getNameEm(ptr noundef nonnull align 8 dereferenceable(216) %0, i64 noundef %1) unnamed_addr #4 align 2 {
  %3 = alloca ptr, align 8
  %4 = alloca ptr, align 8
  %5 = alloca i64, align 8
  store ptr %0, ptr %4, align 8, !tbaa !127
  store i64 %1, ptr %5, align 8, !tbaa !56
  %6 = load ptr, ptr %4, align 8
  %7 = load i64, ptr %5, align 8, !tbaa !56
  %8 = getelementptr inbounds nuw %"class.OpenColorIO_v2_5dev::ColorSpaceMenuHelperImpl", ptr %6, i32 0, i32 2
  %9 = call noundef i64 @_ZNKSt6vectorISt10shared_ptrIKN19OpenColorIO_v2_5dev14ColorSpaceInfoEESaIS4_EE4sizeEv(ptr noundef nonnull align 8 dereferenceable(24) %8) #12
  %10 = icmp ult i64 %7, %9
  br i1 %10, label %11, label %17

11:                                               ; preds = %2
  %12 = getelementptr inbounds nuw %"class.OpenColorIO_v2_5dev::ColorSpaceMenuHelperImpl", ptr %6, i32 0, i32 2
  %13 = load i64, ptr %5, align 8, !tbaa !56
  %14 = call noundef nonnull align 8 dereferenceable(16) ptr @_ZNKSt6vectorISt10shared_ptrIKN19OpenColorIO_v2_5dev14ColorSpaceInfoEESaIS4_EEixEm(ptr noundef nonnull align 8 dereferenceable(24) %12, i64 noundef %13) #12
  %15 = call noundef ptr @_ZNKSt19__shared_ptr_accessIKN19OpenColorIO_v2_5dev14ColorSpaceInfoELN9__gnu_cxx12_Lock_policyE2ELb0ELb0EEptEv(ptr noundef nonnull align 1 dereferenceable(1) %14) #12
  %16 = call noundef ptr @_ZNK19OpenColorIO_v2_5dev14ColorSpaceInfo7getNameEv(ptr noundef nonnull align 8 dereferenceable(160) %15) #12
  store ptr %16, ptr %3, align 8
  br label %18

17:                                               ; preds = %2
  store ptr @.str.2, ptr %3, align 8
  br label %18

18:                                               ; preds = %17, %11
  %19 = load ptr, ptr %3, align 8
  ret ptr %19
}